; Function Attrs: mustprogress nounwind uwtable
define void @_ZN5boost4urls6detail8url_impl12apply_schemeENS_4core17basic_string_viewIcEE(ptr nocapture noundef nonnull align 8 dereferenceable(171) %0, ptr %1, i64 %2) local_unnamed_addr #0 align 2 {
  %4 = tail call noundef zeroext i16 @_ZN5boost4urls16string_to_schemeENS_4core17basic_string_viewIcEE(ptr %1, i64 %2) #12
  %5 = getelementptr inbounds nuw i8, ptr %0, i64 168
  store i16 %4, ptr %5, align 8, !tbaa !3
  %6 = add i64 %2, 1
  %7 = getelementptr inbounds nuw i8, ptr %0, i64 8
  %8 = load i64, ptr %7, align 8, !tbaa !13
  %9 = sub i64 %6, %8
  br label %10

10:                                               ; preds = %10, %3
  %indvars.iv.i = phi i64 [ -1, %3 ], [ %indvars.iv.next.i, %10 ]
  %indvars.iv.next.i = add nsw i64 %indvars.iv.i, 1
  %11 = getelementptr inbounds [8 x i64], ptr %7, i64 0, i64 %indvars.iv.next.i
  %12 = load i64, ptr %11, align 8, !tbaa !13
  %13 = add i64 %9, %12
  store i64 %13, ptr %11, align 8, !tbaa !13
  %exitcond.not.i = icmp eq i64 %indvars.iv.next.i, 7
  br i1 %exitcond.not.i, label %_ZN5boost4urls6detail8url_impl8set_sizeEim.exit, label %10, !llvm.loop !14

_ZN5boost4urls6detail8url_impl8set_sizeEim.exit:  ; preds = %10
  ret void
}